target datalayout = "e-m:e-p270:32:32-p271:32:32-p272:64:64-i64:64-i128:128-f80:128-n8:16:32:64-S128"
target triple = "x86_64-pc-linux-gnu"

%struct.AVBitStreamFilter = type { ptr, ptr, ptr }
%struct.AVPacket = type { ptr, i64, i64, ptr, i32, i32, i32, ptr, i32, i64, i64, ptr, ptr, %struct.AVRational }
%struct.AVRational = type { i32, i32 }

@.str = private unnamed_addr constant [6 x i8] c"chomp\00", align 1
@ff_chomp_bsf = constant { %struct.AVBitStreamFilter, i32, [4 x i8], ptr, ptr, ptr, ptr } { %struct.AVBitStreamFilter { ptr @.str, ptr null, ptr null }, i32 0, [4 x i8] zeroinitializer, ptr null, ptr @chomp_filter, ptr null, ptr null }, align 8

; Function Attrs: nounwind uwtable
define internal i32 @chomp_filter(ptr noundef %0, ptr noundef %1) #0 {
  %3 = alloca i32, align 4
  %4 = alloca ptr, align 8
  %5 = alloca ptr, align 8
  %6 = alloca i32, align 4
  %7 = alloca i32, align 4
  store ptr %0, ptr %4, align 8, !tbaa !4
  store ptr %1, ptr %5, align 8, !tbaa !9
  call void @llvm.lifetime.start.p0(i64 4, ptr %6) #3
  %8 = load ptr, ptr %4, align 8, !tbaa !4
  %9 = load ptr, ptr %5, align 8, !tbaa !9
  %10 = call i32 @ff_bsf_get_packet_ref(ptr noundef %8, ptr noundef %9)
  store i32 %10, ptr %6, align 4, !tbaa !11
  %11 = load i32, ptr %6, align 4, !tbaa !11
  %12 = icmp slt i32 %11, 0
  br i1 %12, label %13, label %15

13:                                               ; preds = %2
  %14 = load i32, ptr %6, align 4, !tbaa !11
  store i32 %14, ptr %3, align 4
  store i32 1, ptr %7, align 4
  br label %42

15:                                               ; preds = %2
  br label %16

16:                                               ; preds = %36, %15
  %17 = load ptr, ptr %5, align 8, !tbaa !9
  %18 = getelementptr inbounds nuw %struct.AVPacket, ptr %17, i32 0, i32 4
  %19 = load i32, ptr %18, align 8, !tbaa !13
  %20 = icmp sgt i32 %19, 0
  br i1 %20, label %21, label %34

21:                                               ; preds = %16
  %22 = load ptr, ptr %5, align 8, !tbaa !9
  %23 = getelementptr inbounds nuw %struct.AVPacket, ptr %22, i32 0, i32 3
  %24 = load ptr, ptr %23, align 8, !tbaa !20
  %25 = load ptr, ptr %5, align 8, !tbaa !9
  %26 = getelementptr inbounds nuw %struct.AVPacket, ptr %25, i32 0, i32 4
  %27 = load i32, ptr %26, align 8, !tbaa !13
  %28 = sub nsw i32 %27, 1
  %29 = sext i32 %28 to i64
  %30 = getelementptr inbounds i8, ptr %24, i64 %29
  %31 = load i8, ptr %30, align 1, !tbaa !21
  %32 = icmp ne i8 %31, 0
  %33 = xor i1 %32, true
  br label %34

34:                                               ; preds = %21, %16
  %35 = phi i1 [ false, %16 ], [ %33, %21 ]
  br i1 %35, label %36, label %41

36:                                               ; preds = %34
  %37 = load ptr, ptr %5, align 8, !tbaa !9
  %38 = getelementptr inbounds nuw %struct.AVPacket, ptr %37, i32 0, i32 4
  %39 = load i32, ptr %38, align 8, !tbaa !13
  %40 = add nsw i32 %39, -1
  store i32 %40, ptr %38, align 8, !tbaa !13
  br label %16, !llvm.loop !22

41:                                               ; preds = %34
  store i32 0, ptr %3, align 4
  store i32 1, ptr %7, align 4
  br label %42

42:                                               ; preds = %41, %13
  call void @llvm.lifetime.end.p0(i64 4, ptr %6) #3
  %43 = load i32, ptr %3, align 4
  ret i32 %43
}

; Function Attrs: nocallback nofree nosync nounwind willreturn memory(argmem: readwrite)
declare void @llvm.lifetime.start.p0(i64 immarg, ptr captures(none)) #1

declare i32 @ff_bsf_get_packet_ref(ptr noundef, ptr noundef) #2

; Function Attrs: nocallback nofree nosync nounwind willreturn memory(argmem: readwrite)
declare void @llvm.lifetime.end.p0(i64 immarg, ptr captures(none)) #1


!llvm.module.flags = !{!0, !1, !2, !3}

!0 = !{i32 1, !"wchar_size", i32 4}
!1 = !{i32 8, !"PIC Level", i32 2}
!2 = !{i32 7, !"uwtable", i32 2}
!3 = !{i32 1, !"override-stack-alignment", i32 16}
!4 = !{!5, !5, i64 0}
!5 = !{!"p1 _ZTS12AVBSFContext", !6, i64 0}
!6 = !{!"any pointer", !7, i64 0}
!7 = !{!"omnipotent char", !8, i64 0}
!8 = !{!"Simple C/C++ TBAA"}
!9 = !{!10, !10, i64 0}
!10 = !{!"p1 _ZTS8AVPacket", !6, i64 0}
!11 = !{!12, !12, i64 0}
!12 = !{!"int", !7, i64 0}
!13 = !{!14, !12, i64 32}
!14 = !{!"AVPacket", !15, i64 0, !16, i64 8, !16, i64 16, !17, i64 24, !12, i64 32, !12, i64 36, !12, i64 40, !18, i64 48, !12, i64 56, !16, i64 64, !16, i64 72, !6, i64 80, !15, i64 88, !19, i64 96}
!15 = !{!"p1 _ZTS11AVBufferRef", !6, i64 0}
!16 = !{!"long", !7, i64 0}
!17 = !{!"p1 omnipotent char", !6, i64 0}
!18 = !{!"p1 _ZTS16AVPacketSideData", !6, i64 0}
!19 = !{!"AVRational", !12, i64 0, !12, i64 4}
!20 = !{!14, !17, i64 24}
!21 = !{!7, !7, i64 0}
!22 = distinct !{!22, !23}
!23 = !{!"llvm.loop.mustprogress"}
