; ModuleID = 'bench/ffmpeg/original/chomp.ll'
source_filename = "bench/ffmpeg/original/chomp.ll"
target datalayout = "e-m:e-p270:32:32-p271:32:32-p272:64:64-i64:64-i128:128-f80:128-n8:16:32:64-S128"
target triple = "x86_64-pc-linux-gnu"

%struct.AVBitStreamFilter = type { ptr, ptr, ptr }

@.str = private unnamed_addr constant [6 x i8] c"chomp\00", align 1
@ff_chomp_bsf = local_unnamed_addr constant { %struct.AVBitStreamFilter, i32, [4 x i8], ptr, ptr, ptr, ptr } { %struct.AVBitStreamFilter { ptr @.str, ptr null, ptr null }, i32 0, [4 x i8] zeroinitializer, ptr null, ptr @chomp_filter, ptr null, ptr null }, align 8

; Function Attrs: nounwind uwtable
define internal range(i32 -2147483648, 1) i32 @chomp_filter(ptr noundef %0, ptr noundef %1) #0 {
  %3 = tail call i32 @ff_bsf_get_packet_ref(ptr noundef %0, ptr noundef %1) #2
  %4 = icmp slt i32 %3, 0
  br i1 %4, label %.critedge, label %.preheader

.preheader:                                       ; preds = %2
  %5 = getelementptr inbounds nuw i8, ptr %1, i64 32
  %.promoted = load i32, ptr %5, align 8, !tbaa !4
  %6 = icmp sgt i32 %.promoted, 0
  br i1 %6, label %.lr.ph, label %.critedge

.lr.ph:                                           ; preds = %.preheader
  %7 = getelementptr inbounds nuw i8, ptr %1, i64 24
  %8 = load ptr, ptr %7, align 8, !tbaa !15
  %invariant.gep = getelementptr i8, ptr %8, i64 -1
  br label %9

9:                                                ; preds = %.lr.ph, %13
  %10 = phi i32 [ %.promoted, %.lr.ph ], [ %14, %13 ]
  %11 = zext nneg i32 %10 to i64
  %gep = getelementptr i8, ptr %invariant.gep, i64 %11
  %12 = load i8, ptr %gep, align 1, !tbaa !16
  %.not = icmp eq i8 %12, 0
  br i1 %.not, label %13, label %.critedge

13:                                               ; preds = %9
  %14 = add nsw i32 %10, -1
  store i32 %14, ptr %5, align 8, !tbaa !4
  %15 = icmp sgt i32 %10, 1
  br i1 %15, label %9, label %.critedge, !llvm.loop !17

.critedge:                                        ; preds = %13, %9, %.preheader, %2
  %.0 = phi i32 [ %3, %2 ], [ 0, %.preheader ], [ 0, %9 ], [ 0, %13 ]
  ret i32 %.0
}

declare i32 @ff_bsf_get_packet_ref(ptr noundef, ptr noundef) local_unnamed_addr #1


!llvm.module.flags = !{!0, !1, !2, !3}

!0 = !{i32 1, !"wchar_size", i32 4}
!1 = !{i32 8, !"PIC Level", i32 2}
!2 = !{i32 7, !"uwtable", i32 2}
!3 = !{i32 1, !"override-stack-alignment", i32 16}
!4 = !{!5, !12, i64 32}
!5 = !{!"AVPacket", !6, i64 0, !10, i64 8, !10, i64 16, !11, i64 24, !12, i64 32, !12, i64 36, !12, i64 40, !13, i64 48, !12, i64 56, !10, i64 64, !10, i64 72, !7, i64 80, !6, i64 88, !14, i64 96}
!6 = !{!"p1 _ZTS11AVBufferRef", !7, i64 0}
!7 = !{!"any pointer", !8, i64 0}
!8 = !{!"omnipotent char", !9, i64 0}
!9 = !{!"Simple C/C++ TBAA"}
!10 = !{!"long", !8, i64 0}
!11 = !{!"p1 omnipotent char", !7, i64 0}
!12 = !{!"int", !8, i64 0}
!13 = !{!"p1 _ZTS16AVPacketSideData", !7, i64 0}
!14 = !{!"AVRational", !12, i64 0, !12, i64 4}
!15 = !{!5, !11, i64 24}
!16 = !{!8, !8, i64 0}
!17 = distinct !{!17, !18}
!18 = !{!"llvm.loop.mustprogress"}
